TN:result
SF:/data/home/apoongavanam/UTWorkShop/HarmanUniversity/UTWorkshopCPlusPlusGTest/src/LeapYear.cpp
FN:3,_ZN16LeapYearCalendar6isLeapEi
FN:7,_ZN16LeapYearCalendar14isDivisibleBy4Ei
FN:11,_ZN16LeapYearCalendar16isDivisibleBy100Ei
FN:15,_ZN16LeapYearCalendar16isDivisibleBy400Ei
FNDA:4,_ZN16LeapYearCalendar6isLeapEi
FNDA:4,_ZN16LeapYearCalendar14isDivisibleBy4Ei
FNDA:0,_ZN16LeapYearCalendar16isDivisibleBy100Ei
FNDA:0,_ZN16LeapYearCalendar16isDivisibleBy400Ei
FNF:4
FNH:2
DA:3,4
DA:4,4
DA:7,4
DA:8,4
DA:11,0
DA:12,0
DA:15,0
DA:16,0
LF:8
LH:4
end_of_record
TN:result
SF:/data/home/apoongavanam/UTWorkShop/HarmanUniversity/UTWorkshopCPlusPlusGTest/test/LeapYearStandaloneTests.cpp
FN:5,_ZN39LeapYearTests_1IsOdd_IsNotLeapYear_TestD0Ev
FN:5,_ZN39LeapYearTests_1IsOdd_IsNotLeapYear_TestD2Ev
FN:5,_ZN39LeapYearTests_1IsOdd_IsNotLeapYear_TestC2Ev
FN:5,_ZN39LeapYearTests_1IsOdd_IsNotLeapYear_Test8TestBodyEv
FN:8,_GLOBAL__sub_I__ZN39LeapYearTests_1IsOdd_IsNotLeapYear_Test10test_info_E
FN:8,_Z41__static_initialization_and_destruction_0ii
FNDA:2,_ZN39LeapYearTests_1IsOdd_IsNotLeapYear_TestD0Ev
FNDA:2,_ZN39LeapYearTests_1IsOdd_IsNotLeapYear_TestD2Ev
FNDA:2,_ZN39LeapYearTests_1IsOdd_IsNotLeapYear_Test8TestBodyEv
FNDA:2,_ZN39LeapYearTests_1IsOdd_IsNotLeapYear_TestC2Ev
FNDA:2,_GLOBAL__sub_I__ZN39LeapYearTests_1IsOdd_IsNotLeapYear_Test10test_info_E
FNDA:2,_Z41__static_initialization_and_destruction_0ii
FNF:6
FNH:6
DA:5,10
DA:7,2
DA:8,6
LF:3
LH:3
end_of_record
SF:/usr/include/c++/5/iostream
DA:74,2
LF:1
LH:1
end_of_record
SF:/usr/include/gtest/gtest-message.h
FN:85,_ZN7testing7MessageD2Ev
FNDA:86,_ZN7testing7MessageD2Ev
FNF:1
FNH:1
DA:85,86
LF:1
LH:1
end_of_record
SF:/usr/include/gtest/gtest.h
FN:256,_ZN7testing15AssertionResultD2Ev
FN:262,_ZN7testing15AssertionResultC2Eb
FN:265,_ZNK7testing15AssertionResultcvbEv
FN:365,_ZN7testing4Test13SetUpTestCaseEv
FN:373,_ZN7testing4Test16TearDownTestCaseEv
FN:451,_ZN7testing4Test5SetupEv
FNDA:4,_ZN7testing15AssertionResultD2Ev
FNDA:4,_ZN7testing15AssertionResultC2Eb
FNDA:4,_ZNK7testing15AssertionResultcvbEv
FNDA:2,_ZN7testing4Test13SetUpTestCaseEv
FNDA:2,_ZN7testing4Test16TearDownTestCaseEv
FNDA:0,_ZN7testing4Test5SetupEv
FNF:6
FNH:5
DA:256,4
DA:262,4
DA:265,4
DA:365,2
DA:373,2
DA:451,0
LF:6
LH:5
end_of_record
SF:/usr/include/gtest/internal/gtest-internal.h
FN:436,_ZN7testing8internal15TestFactoryBaseD2Ev
FN:436,_ZN7testing8internal15TestFactoryBaseD0Ev
FN:443,_ZN7testing8internal15TestFactoryBaseC2Ev
FN:452,_ZN7testing8internal15TestFactoryImplI39LeapYearTests_1IsOdd_IsNotLeapYear_TestEC2Ev
FN:452,_ZN7testing8internal15TestFactoryImplI39LeapYearTests_1IsOdd_IsNotLeapYear_TestED2Ev
FN:452,_ZN7testing8internal15TestFactoryImplI39LeapYearTests_1IsOdd_IsNotLeapYear_TestED0Ev
FN:454,_ZN7testing8internal15TestFactoryImplI39LeapYearTests_1IsOdd_IsNotLeapYear_TestE10CreateTestEv
FNDA:0,_ZN7testing8internal15TestFactoryBaseD0Ev
FNDA:4,_ZN7testing8internal15TestFactoryBaseD2Ev
FNDA:4,_ZN7testing8internal15TestFactoryBaseC2Ev
FNDA:2,_ZN7testing8internal15TestFactoryImplI39LeapYearTests_1IsOdd_IsNotLeapYear_TestED0Ev
FNDA:2,_ZN7testing8internal15TestFactoryImplI39LeapYearTests_1IsOdd_IsNotLeapYear_TestED2Ev
FNDA:2,_ZN7testing8internal15TestFactoryImplI39LeapYearTests_1IsOdd_IsNotLeapYear_TestEC2Ev
FNDA:2,_ZN7testing8internal15TestFactoryImplI39LeapYearTests_1IsOdd_IsNotLeapYear_TestE10CreateTestEv
FNF:7
FNH:6
DA:436,4
DA:443,4
DA:452,6
DA:454,2
LF:4
LH:4
end_of_record
SF:/usr/include/gtest/internal/gtest-port.h
FN:897,_ZN7testing8internal10scoped_ptrINSt7__cxx1112basic_stringIcSt11char_traitsIcESaIcEEEEC2EPS7_
FN:898,_ZN7testing8internal10scoped_ptrINSt7__cxx1118basic_stringstreamIcSt11char_traitsIcESaIcEEEED2Ev
FN:898,_ZN7testing8internal10scoped_ptrINSt7__cxx1112basic_stringIcSt11char_traitsIcESaIcEEEED2Ev
FN:910,_ZN7testing8internal10scoped_ptrINSt7__cxx1112basic_stringIcSt11char_traitsIcESaIcEEEE5resetEPS7_
FN:910,_ZN7testing8internal10scoped_ptrINSt7__cxx1118basic_stringstreamIcSt11char_traitsIcESaIcEEEE5resetEPS7_
FNDA:4,_ZN7testing8internal10scoped_ptrINSt7__cxx1112basic_stringIcSt11char_traitsIcESaIcEEEEC2EPS7_
FNDA:4,_ZN7testing8internal10scoped_ptrINSt7__cxx1112basic_stringIcSt11char_traitsIcESaIcEEEED2Ev
FNDA:86,_ZN7testing8internal10scoped_ptrINSt7__cxx1118basic_stringstreamIcSt11char_traitsIcESaIcEEEED2Ev
FNDA:86,_ZN7testing8internal10scoped_ptrINSt7__cxx1118basic_stringstreamIcSt11char_traitsIcESaIcEEEE5resetEPS7_
FNDA:4,_ZN7testing8internal10scoped_ptrINSt7__cxx1112basic_stringIcSt11char_traitsIcESaIcEEEE5resetEPS7_
FNF:5
FNH:5
DA:897,4
DA:898,90
DA:910,90
DA:911,90
DA:912,86
DA:913,86
DA:915,86
DA:917,90
LF:8
LH:8
end_of_record
TN:result
SF:/data/home/apoongavanam/UTWorkShop/HarmanUniversity/UTWorkshopCPlusPlusGTest/test/LeapYearStandaloneTests_Suresh.cpp
FN:5,_ZN46LeapYearTests_CurrentYear_IsLeapYearORNot_TestC2Ev
FN:5,_ZN46LeapYearTests_CurrentYear_IsLeapYearORNot_Test8TestBodyEv
FN:5,_ZN46LeapYearTests_CurrentYear_IsLeapYearORNot_TestD2Ev
FN:5,_ZN46LeapYearTests_CurrentYear_IsLeapYearORNot_TestD0Ev
FN:8,_Z41__static_initialization_and_destruction_0ii
FN:8,_GLOBAL__sub_I__ZN46LeapYearTests_CurrentYear_IsLeapYearORNot_Test10test_info_E
FNDA:2,_ZN46LeapYearTests_CurrentYear_IsLeapYearORNot_TestD0Ev
FNDA:2,_ZN46LeapYearTests_CurrentYear_IsLeapYearORNot_TestD2Ev
FNDA:2,_ZN46LeapYearTests_CurrentYear_IsLeapYearORNot_Test8TestBodyEv
FNDA:2,_ZN46LeapYearTests_CurrentYear_IsLeapYearORNot_TestC2Ev
FNDA:2,_GLOBAL__sub_I__ZN46LeapYearTests_CurrentYear_IsLeapYearORNot_Test10test_info_E
FNDA:2,_Z41__static_initialization_and_destruction_0ii
FNF:6
FNH:6
DA:5,10
DA:7,2
DA:8,6
LF:3
LH:3
end_of_record
SF:/usr/include/c++/5/iostream
DA:74,2
LF:1
LH:1
end_of_record
SF:/usr/include/gtest/gtest-message.h
FN:85,_ZN7testing7MessageD2Ev
FNDA:0,_ZN7testing7MessageD2Ev
FNF:1
FNH:0
DA:85,0
LF:1
LH:0
end_of_record
SF:/usr/include/gtest/gtest.h
FN:256,_ZN7testing15AssertionResultD2Ev
FN:262,_ZN7testing15AssertionResultC2Eb
FN:265,_ZNK7testing15AssertionResultcvbEv
FN:365,_ZN7testing4Test13SetUpTestCaseEv
FN:373,_ZN7testing4Test16TearDownTestCaseEv
FN:451,_ZN7testing4Test5SetupEv
FNDA:0,_ZN7testing15AssertionResultD2Ev
FNDA:0,_ZN7testing15AssertionResultC2Eb
FNDA:0,_ZNK7testing15AssertionResultcvbEv
FNDA:0,_ZN7testing4Test13SetUpTestCaseEv
FNDA:0,_ZN7testing4Test16TearDownTestCaseEv
FNDA:0,_ZN7testing4Test5SetupEv
FNF:6
FNH:0
DA:256,0
DA:262,0
DA:265,0
DA:365,0
DA:373,0
DA:451,0
LF:6
LH:0
end_of_record
SF:/usr/include/gtest/internal/gtest-internal.h
FN:436,_ZN7testing8internal15TestFactoryBaseD0Ev
FN:436,_ZN7testing8internal15TestFactoryBaseD2Ev
FN:443,_ZN7testing8internal15TestFactoryBaseC2Ev
FN:452,_ZN7testing8internal15TestFactoryImplI46LeapYearTests_CurrentYear_IsLeapYearORNot_TestED0Ev
FN:452,_ZN7testing8internal15TestFactoryImplI46LeapYearTests_CurrentYear_IsLeapYearORNot_TestED2Ev
FN:452,_ZN7testing8internal15TestFactoryImplI46LeapYearTests_CurrentYear_IsLeapYearORNot_TestEC2Ev
FN:454,_ZN7testing8internal15TestFactoryImplI46LeapYearTests_CurrentYear_IsLeapYearORNot_TestE10CreateTestEv
FNDA:0,_ZN7testing8internal15TestFactoryBaseD0Ev
FNDA:0,_ZN7testing8internal15TestFactoryBaseD2Ev
FNDA:0,_ZN7testing8internal15TestFactoryBaseC2Ev
FNDA:2,_ZN7testing8internal15TestFactoryImplI46LeapYearTests_CurrentYear_IsLeapYearORNot_TestED0Ev
FNDA:2,_ZN7testing8internal15TestFactoryImplI46LeapYearTests_CurrentYear_IsLeapYearORNot_TestED2Ev
FNDA:2,_ZN7testing8internal15TestFactoryImplI46LeapYearTests_CurrentYear_IsLeapYearORNot_TestEC2Ev
FNDA:2,_ZN7testing8internal15TestFactoryImplI46LeapYearTests_CurrentYear_IsLeapYearORNot_TestE10CreateTestEv
FNF:7
FNH:4
DA:436,0
DA:443,0
DA:452,6
DA:454,2
LF:4
LH:2
end_of_record
SF:/usr/include/gtest/internal/gtest-port.h
FN:897,_ZN7testing8internal10scoped_ptrINSt7__cxx1112basic_stringIcSt11char_traitsIcESaIcEEEEC2EPS7_
FN:898,_ZN7testing8internal10scoped_ptrINSt7__cxx1112basic_stringIcSt11char_traitsIcESaIcEEEED2Ev
FN:898,_ZN7testing8internal10scoped_ptrINSt7__cxx1118basic_stringstreamIcSt11char_traitsIcESaIcEEEED2Ev
FN:910,_ZN7testing8internal10scoped_ptrINSt7__cxx1112basic_stringIcSt11char_traitsIcESaIcEEEE5resetEPS7_
FN:910,_ZN7testing8internal10scoped_ptrINSt7__cxx1118basic_stringstreamIcSt11char_traitsIcESaIcEEEE5resetEPS7_
FNDA:0,_ZN7testing8internal10scoped_ptrINSt7__cxx1112basic_stringIcSt11char_traitsIcESaIcEEEEC2EPS7_
FNDA:0,_ZN7testing8internal10scoped_ptrINSt7__cxx1112basic_stringIcSt11char_traitsIcESaIcEEEED2Ev
FNDA:0,_ZN7testing8internal10scoped_ptrINSt7__cxx1118basic_stringstreamIcSt11char_traitsIcESaIcEEEED2Ev
FNDA:0,_ZN7testing8internal10scoped_ptrINSt7__cxx1118basic_stringstreamIcSt11char_traitsIcESaIcEEEE5resetEPS7_
FNDA:0,_ZN7testing8internal10scoped_ptrINSt7__cxx1112basic_stringIcSt11char_traitsIcESaIcEEEE5resetEPS7_
FNF:5
FNH:0
DA:897,0
DA:898,0
DA:910,0
DA:911,0
DA:912,0
DA:913,0
DA:915,0
DA:917,0
LF:8
LH:0
end_of_record
TN:result
SF:/data/home/apoongavanam/UTWorkShop/HarmanUniversity/UTWorkshopCPlusPlusGTest/test/main.cpp
FN:3,main
FN:7,_Z41__static_initialization_and_destruction_0ii
FN:7,_GLOBAL__sub_I_main
FNDA:2,main
FNDA:2,_GLOBAL__sub_I_main
FNDA:2,_Z41__static_initialization_and_destruction_0ii
FNF:3
FNH:3
DA:3,2
DA:5,2
DA:6,2
DA:7,6
LF:4
LH:4
end_of_record
SF:/usr/include/c++/5/iostream
DA:74,2
LF:1
LH:1
end_of_record
SF:/usr/include/gtest/gtest.h
FN:2287,_Z13RUN_ALL_TESTSv
FNDA:2,_Z13RUN_ALL_TESTSv
FNF:1
FNH:1
DA:2287,2
DA:2288,2
LF:2
LH:2
end_of_record
